; ModuleID = '50/1692.c'
source_filename = "50/1692.c"
target datalayout = "e-m:e-p270:32:32-p271:32:32-p272:64:64-i64:64-f80:128-n8:16:32:64-S128"
target triple = "x86_64-pc-linux-gnu"

@.str = private unnamed_addr constant [3 x i8] c"%d\00", align 1
@.str.1 = private unnamed_addr constant [4 x i8] c"%d\0A\00", align 1

; Function Attrs: noinline nounwind uwtable
define dso_local i32 @main() #0 {
  %1 = alloca i32, align 4
  %2 = alloca i32, align 4
  %3 = alloca i32, align 4
  %4 = alloca i32, align 4
  store i32 0, i32* %1, align 4
  %5 = call i32 (i8*, ...) @__isoc99_scanf(i8* getelementptr inbounds ([3 x i8], [3 x i8]* @.str, i64 0, i64 0), i32* %2)
  store i32 1, i32* %3, align 4
  br label %6

6:                                                ; preds = %80, %0
  %7 = load i32, i32* %3, align 4
  %8 = icmp slt i32 %7, 13
  br i1 %8, label %9, label %83

9:                                                ; preds = %6
  %10 = load i32, i32* %2, align 4
  %11 = add nsw i32 %10, 5
  store i32 %11, i32* %4, align 4
  %12 = load i32, i32* %4, align 4
  %13 = icmp sgt i32 %12, 7
  br i1 %13, label %14, label %17

14:                                               ; preds = %9
  %15 = load i32, i32* %4, align 4
  %16 = sub nsw i32 %15, 7
  store i32 %16, i32* %4, align 4
  br label %17

17:                                               ; preds = %14, %9
  %18 = load i32, i32* %4, align 4
  %19 = icmp eq i32 %18, 5
  br i1 %19, label %20, label %23

20:                                               ; preds = %17
  %21 = load i32, i32* %3, align 4
  %22 = call i32 (i8*, ...) @printf(i8* getelementptr inbounds ([4 x i8], [4 x i8]* @.str.1, i64 0, i64 0), i32 %21)
  br label %23

23:                                               ; preds = %20, %17
  %24 = load i32, i32* %3, align 4
  %25 = icmp eq i32 %24, 1
  br i1 %25, label %44, label %26

26:                                               ; preds = %23
  %27 = load i32, i32* %3, align 4
  %28 = icmp eq i32 %27, 3
  br i1 %28, label %44, label %29

29:                                               ; preds = %26
  %30 = load i32, i32* %3, align 4
  %31 = icmp eq i32 %30, 5
  br i1 %31, label %44, label %32

32:                                               ; preds = %29
  %33 = load i32, i32* %3, align 4
  %34 = icmp eq i32 %33, 7
  br i1 %34, label %44, label %35

35:                                               ; preds = %32
  %36 = load i32, i32* %3, align 4
  %37 = icmp eq i32 %36, 8
  br i1 %37, label %44, label %38

38:                                               ; preds = %35
  %39 = load i32, i32* %3, align 4
  %40 = icmp eq i32 %39, 10
  br i1 %40, label %44, label %41

41:                                               ; preds = %38
  %42 = load i32, i32* %3, align 4
  %43 = icmp eq i32 %42, 12
  br i1 %43, label %44, label %53

44:                                               ; preds = %41, %38, %35, %32, %29, %26, %23
  %45 = load i32, i32* %2, align 4
  %46 = add nsw i32 %45, 3
  store i32 %46, i32* %2, align 4
  %47 = load i32, i32* %2, align 4
  %48 = icmp sgt i32 %47, 7
  br i1 %48, label %49, label %52

49:                                               ; preds = %44
  %50 = load i32, i32* %2, align 4
  %51 = sub nsw i32 %50, 7
  store i32 %51, i32* %2, align 4
  br label %52

52:                                               ; preds = %49, %44
  br label %53

53:                                               ; preds = %52, %41
  %54 = load i32, i32* %3, align 4
  %55 = icmp eq i32 %54, 4
  br i1 %55, label %65, label %56

56:                                               ; preds = %53
  %57 = load i32, i32* %3, align 4
  %58 = icmp eq i32 %57, 6
  br i1 %58, label %65, label %59

59:                                               ; preds = %56
  %60 = load i32, i32* %3, align 4
  %61 = icmp eq i32 %60, 9
  br i1 %61, label %65, label %62

62:                                               ; preds = %59
  %63 = load i32, i32* %3, align 4
  %64 = icmp eq i32 %63, 11
  br i1 %64, label %65, label %74

65:                                               ; preds = %62, %59, %56, %53
  %66 = load i32, i32* %2, align 4
  %67 = add nsw i32 %66, 2
  store i32 %67, i32* %2, align 4
  %68 = load i32, i32* %2, align 4
  %69 = icmp sgt i32 %68, 7
  br i1 %69, label %70, label %73

70:                                               ; preds = %65
  %71 = load i32, i32* %2, align 4
  %72 = sub nsw i32 %71, 7
  store i32 %72, i32* %2, align 4
  br label %73

73:                                               ; preds = %70, %65
  br label %74

74:                                               ; preds = %73, %62
  %75 = load i32, i32* %3, align 4
  %76 = icmp eq i32 %75, 2
  br i1 %76, label %77, label %79

77:                                               ; preds = %74
  %78 = load i32, i32* %2, align 4
  store i32 %78, i32* %2, align 4
  br label %79

79:                                               ; preds = %77, %74
  br label %80

80:                                               ; preds = %79
  %81 = load i32, i32* %3, align 4
  %82 = add nsw i32 %81, 1
  store i32 %82, i32* %3, align 4
  br label %6

83:                                               ; preds = %6
  ret i32 0
}

declare dso_local i32 @__isoc99_scanf(i8*, ...) #1

declare dso_local i32 @printf(i8*, ...) #1


!llvm.module.flags = !{!0}
!llvm.ident = !{!1}

!0 = !{i32 1, !"wchar_size", i32 4}
!1 = !{!"clang version 10.0.0-4ubuntu1 "}
