; ModuleID = 'source-C-CXX/49/1692.c'
source_filename = "source-C-CXX/49/1692.c"
target datalayout = "e-m:e-p270:32:32-p271:32:32-p272:64:64-i64:64-f80:128-n8:16:32:64-S128"
target triple = "x86_64-pc-linux-gnu"

@.str = private unnamed_addr constant [3 x i8] c"%d\00", align 1
@.str.1 = private unnamed_addr constant [4 x i8] c"%d\0A\00", align 1

; Function Attrs: nofree nounwind sspstrong uwtable
define dso_local i32 @main() local_unnamed_addr #0 {
  %1 = alloca i32, align 4
  %2 = bitcast i32* %1 to i8*
  call void @llvm.lifetime.start.p0i8(i64 4, i8* nonnull %2) #3
  %3 = call i32 (i8*, ...) @__isoc99_scanf(i8* getelementptr inbounds ([3 x i8], [3 x i8]* @.str, i64 0, i64 0), i32* nonnull %1)
  br label %4

4:                                                ; preds = %0, %34
  %5 = phi i32 [ 1, %0 ], [ %35, %34 ]
  %6 = load i32, i32* %1, align 4, !tbaa !5
  %7 = icmp sgt i32 %6, 2
  %8 = select i1 %7, i32 -2, i32 5
  %9 = add nsw i32 %8, %6
  %10 = icmp eq i32 %9, 5
  br i1 %10, label %11, label %13

11:                                               ; preds = %4
  %12 = call i32 (i8*, ...) @printf(i8* nonnull dereferenceable(1) getelementptr inbounds ([4 x i8], [4 x i8]* @.str.1, i64 0, i64 0), i32 %5)
  br label %13

13:                                               ; preds = %11, %4
  %14 = and i32 %5, 2147483645
  %15 = and i32 %5, 2147483641
  %16 = icmp eq i32 %15, 1
  %17 = icmp eq i32 %14, 8
  %18 = or i1 %17, %16
  %19 = icmp eq i32 %5, 12
  %20 = select i1 %18, i1 true, i1 %19
  br i1 %20, label %21, label %27

21:                                               ; preds = %13
  %22 = load i32, i32* %1, align 4, !tbaa !5
  %23 = add nsw i32 %22, 3
  store i32 %23, i32* %1, align 4, !tbaa !5
  %24 = icmp sgt i32 %22, 4
  br i1 %24, label %25, label %27

25:                                               ; preds = %21
  %26 = add nsw i32 %22, -4
  store i32 %26, i32* %1, align 4, !tbaa !5
  br label %27

27:                                               ; preds = %21, %25, %13
  switch i32 %14, label %34 [
    i32 9, label %28
    i32 4, label %28
  ]

28:                                               ; preds = %27, %27
  %29 = load i32, i32* %1, align 4, !tbaa !5
  %30 = add nsw i32 %29, 2
  store i32 %30, i32* %1, align 4, !tbaa !5
  %31 = icmp sgt i32 %29, 5
  br i1 %31, label %32, label %34

32:                                               ; preds = %28
  %33 = add nsw i32 %29, -5
  store i32 %33, i32* %1, align 4, !tbaa !5
  br label %34

34:                                               ; preds = %27, %28, %32
  %35 = add nuw nsw i32 %5, 1
  %36 = icmp eq i32 %35, 13
  br i1 %36, label %37, label %4, !llvm.loop !9

37:                                               ; preds = %34
  call void @llvm.lifetime.end.p0i8(i64 4, i8* nonnull %2) #3
  ret i32 0
}

; Function Attrs: argmemonly mustprogress nofree nosync nounwind willreturn
declare void @llvm.lifetime.start.p0i8(i64 immarg, i8* nocapture) #1

; Function Attrs: nofree nounwind
declare noundef i32 @__isoc99_scanf(i8* nocapture noundef readonly, ...) local_unnamed_addr #2

; Function Attrs: nofree nounwind
declare noundef i32 @printf(i8* nocapture noundef readonly, ...) local_unnamed_addr #2

; Function Attrs: argmemonly mustprogress nofree nosync nounwind willreturn
declare void @llvm.lifetime.end.p0i8(i64 immarg, i8* nocapture) #1


!llvm.module.flags = !{!0, !1, !2, !3}
!llvm.ident = !{!4}

!0 = !{i32 1, !"wchar_size", i32 4}
!1 = !{i32 7, !"PIC Level", i32 2}
!2 = !{i32 7, !"PIE Level", i32 2}
!3 = !{i32 7, !"uwtable", i32 1}
!4 = !{!"clang version 13.0.0"}
!5 = !{!6, !6, i64 0}
!6 = !{!"int", !7, i64 0}
!7 = !{!"omnipotent char", !8, i64 0}
!8 = !{!"Simple C/C++ TBAA"}
!9 = distinct !{!9, !10}
!10 = !{!"llvm.loop.mustprogress"}
